target datalayout = "e-m:e-p270:32:32-p271:32:32-p272:64:64-i64:64-i128:128-f80:128-n8:16:32:64-S128"
target triple = "x86_64-pc-linux-gnu"

%"class.icu_77::UObject" = type { ptr }
%"class.icu_77::StringTrieBuilder::Node" = type { %"class.icu_77::UObject", i32, i32 }

; Function Attrs: mustprogress nounwind uwtable
define noundef i32 @_ZN6icu_7717StringTrieBuilder4Node19markRightEdgesFirstEi(ptr noundef nonnull align 8 dereferenceable(16) %0, i32 noundef %1) unnamed_addr #0 align 2 {
  %3 = alloca ptr, align 8
  %4 = alloca i32, align 4
  store ptr %0, ptr %3, align 8, !tbaa !24
  store i32 %1, ptr %4, align 4, !tbaa !16
  %5 = load ptr, ptr %3, align 8
  %6 = getelementptr inbounds nuw %"class.icu_77::StringTrieBuilder::Node", ptr %5, i32 0, i32 2
  %7 = load i32, ptr %6, align 4, !tbaa !77
  %8 = icmp eq i32 %7, 0
  br i1 %8, label %9, label %12

9:                                                ; preds = %2
  %10 = load i32, ptr %4, align 4, !tbaa !16
  %11 = getelementptr inbounds nuw %"class.icu_77::StringTrieBuilder::Node", ptr %5, i32 0, i32 2
  store i32 %10, ptr %11, align 4, !tbaa !77
  br label %12

12:                                               ; preds = %9, %2
  %13 = load i32, ptr %4, align 4, !tbaa !16
  ret i32 %13
}