; Function Attrs: mustprogress nofree norecurse nosync nounwind willreturn memory(argmem: readwrite) uwtable
define noundef i32 @_ZN6icu_7717StringTrieBuilder4Node19markRightEdgesFirstEi(ptr noundef nonnull align 8 captures(none) dereferenceable(16) %0, i32 noundef returned %1) unnamed_addr #12 align 2 {
  %3 = getelementptr inbounds nuw i8, ptr %0, i64 12
  %4 = load i32, ptr %3, align 4, !tbaa !21
  %5 = icmp eq i32 %4, 0
  br i1 %5, label %6, label %7

6:                                                ; preds = %2
  store i32 %1, ptr %3, align 4, !tbaa !21
  br label %7

7:                                                ; preds = %6, %2
  ret i32 %1
}